; Function Attrs: mustprogress nounwind uwtable
define hidden void @_ZN4cvc58internal3smt12PreprocessorD0Ev(ptr noundef nonnull align 8 dereferenceable(712) %this) unnamed_addr #4 align 2 personality ptr @__gxx_personality_v0 {
entry:
  store ptr getelementptr inbounds ({ [4 x ptr] }, ptr @_ZTVN4cvc58internal3smt12PreprocessorE, i64 0, i32 0, i64 2), ptr %this, align 8
  %d_processor.i = getelementptr inbounds i8, ptr %this, i64 608
  tail call void @_ZN4cvc58internal3smt17ProcessAssertionsD1Ev(ptr noundef nonnull align 8 dereferenceable(100) %d_processor.i) #17
  %d_ppContext.i = getelementptr inbounds i8, ptr %this, i64 600
  %0 = load ptr, ptr %d_ppContext.i, align 8
  %cmp.not.i.i = icmp eq ptr %0, null
  br i1 %cmp.not.i.i, label %_ZNSt10unique_ptrIN4cvc58internal13preprocessing24PreprocessingPassContextESt14default_deleteIS3_EED2Ev.exit.i, label %_ZNKSt14default_deleteIN4cvc58internal13preprocessing24PreprocessingPassContextEEclEPS3_.exit.i.i

_ZNKSt14default_deleteIN4cvc58internal13preprocessing24PreprocessingPassContextEEclEPS3_.exit.i.i: ; preds = %entry
  %vtable.i.i.i = load ptr, ptr %0, align 8
  %vfn.i.i.i = getelementptr inbounds i8, ptr %vtable.i.i.i, i64 8
  %1 = load ptr, ptr %vfn.i.i.i, align 8
  tail call void %1(ptr noundef nonnull align 8 dereferenceable(168) %0) #17
  br label %_ZNSt10unique_ptrIN4cvc58internal13preprocessing24PreprocessingPassContextESt14default_deleteIS3_EED2Ev.exit.i

_ZNSt10unique_ptrIN4cvc58internal13preprocessing24PreprocessingPassContextESt14default_deleteIS3_EED2Ev.exit.i: ; preds = %_ZNKSt14default_deleteIN4cvc58internal13preprocessing24PreprocessingPassContextEEclEPS3_.exit.i.i, %entry
  store ptr null, ptr %d_ppContext.i, align 8
  %d_assertionsProcessed.i = getelementptr inbounds i8, ptr %this, i64 552
  store ptr getelementptr inbounds ({ [6 x ptr] }, ptr @_ZTVN4cvc57context3CDOIbEE, i64 0, i32 0, i64 2), ptr %d_assertionsProcessed.i, align 8
  invoke void @_ZN4cvc57context10ContextObj7destroyEv(ptr noundef nonnull align 8 dereferenceable(40) %d_assertionsProcessed.i)
          to label %_ZN4cvc57context3CDOIbED2Ev.exit.i unwind label %terminate.lpad.i.i

terminate.lpad.i.i:                               ; preds = %_ZNSt10unique_ptrIN4cvc58internal13preprocessing24PreprocessingPassContextESt14default_deleteIS3_EED2Ev.exit.i
  %2 = landingpad { ptr, i32 }
          catch ptr null
  %3 = extractvalue { ptr, i32 } %2, 0
  tail call void @__clang_call_terminate(ptr %3) #18
  unreachable

_ZN4cvc57context3CDOIbED2Ev.exit.i:               ; preds = %_ZNSt10unique_ptrIN4cvc58internal13preprocessing24PreprocessingPassContextESt14default_deleteIS3_EED2Ev.exit.i
  %d_propagator.i = getelementptr inbounds i8, ptr %this, i64 24
  tail call void @_ZN4cvc58internal6theory8booleans17CircuitPropagatorD2Ev(ptr noundef nonnull align 8 dereferenceable(528) %d_propagator.i) #17
  %d_pppg.i = getelementptr inbounds i8, ptr %this, i64 16
  %4 = load ptr, ptr %d_pppg.i, align 8
  %cmp.not.i1.i = icmp eq ptr %4, null
  br i1 %cmp.not.i1.i, label %_ZN4cvc58internal3smt12PreprocessorD2Ev.exit, label %_ZNKSt14default_deleteIN4cvc58internal3smt24PreprocessProofGeneratorEEclEPS3_.exit.i.i

_ZNKSt14default_deleteIN4cvc58internal3smt24PreprocessProofGeneratorEEclEPS3_.exit.i.i: ; preds = %_ZN4cvc57context3CDOIbED2Ev.exit.i
  %vtable.i.i2.i = load ptr, ptr %4, align 8
  %vfn.i.i3.i = getelementptr inbounds i8, ptr %vtable.i.i2.i, i64 8
  %5 = load ptr, ptr %vfn.i.i3.i, align 8
  tail call void %5(ptr noundef nonnull align 8 dereferenceable(576) %4) #17
  br label %_ZN4cvc58internal3smt12PreprocessorD2Ev.exit

_ZN4cvc58internal3smt12PreprocessorD2Ev.exit:     ; preds = %_ZN4cvc57context3CDOIbED2Ev.exit.i, %_ZNKSt14default_deleteIN4cvc58internal3smt24PreprocessProofGeneratorEEclEPS3_.exit.i.i
  tail call void @_ZdlPv(ptr noundef nonnull %this) #19
  ret void
}